target datalayout = "e-m:e-p270:32:32-p271:32:32-p272:64:64-i64:64-i128:128-f80:128-n8:16:32:64-S128"
target triple = "x86_64-pc-linux-gnu"

%struct.expert_field = type { i32, i32 }

@hf_gtpv2_fq_csid_type = internal global i32 0, align 4
@hf_gtpv2_fq_csid_nr = internal global i32 0, align 4
@hf_gtpv2_fq_csid_ipv4 = internal global i32 0, align 4
@hf_gtpv2_fq_csid_ipv6 = internal global i32 0, align 4
@hf_gtpv2_fq_csid_node_id = internal global i32 0, align 4
@hf_gtpv2_fq_csid_mcc_mnc = internal global i32 0, align 4
@ei_gtpv2_fq_csid_type_bad = internal global %struct.expert_field zeroinitializer, align 4
@.str.15 = private unnamed_addr constant [62 x i8] c"Wrong Node-ID Type %u, should be 0-2(Or this is a newer spec)\00", align 1
@hf_gtpv2_fq_csid_id = internal global i32 0, align 4

; Function Attrs: null_pointer_is_valid sspstrong uwtable
define hidden void @dissect_gtpv2_fq_csid(ptr noundef %0, ptr noundef %1, ptr noundef %2, ptr noundef %3, i16 noundef zeroext %4, i8 noundef zeroext %5, i8 noundef zeroext %6, ptr noundef %7) #1 {
  %9 = alloca ptr, align 8
  %10 = alloca ptr, align 8
  %11 = alloca ptr, align 8
  %12 = alloca ptr, align 8
  %13 = alloca i16, align 2
  %14 = alloca i8, align 1
  %15 = alloca i8, align 1
  %16 = alloca ptr, align 8
  %17 = alloca i32, align 4
  %18 = alloca i8, align 1
  %19 = alloca i8, align 1
  %20 = alloca i8, align 1
  %21 = alloca i32, align 4
  store ptr %0, ptr %9, align 8
  store ptr %1, ptr %10, align 8
  store ptr %2, ptr %11, align 8
  store ptr %3, ptr %12, align 8
  store i16 %4, ptr %13, align 2
  store i8 %5, ptr %14, align 1
  store i8 %6, ptr %15, align 1
  store ptr %7, ptr %16, align 8
  call void @llvm.lifetime.start.p0(i64 4, ptr %17) #11
  store i32 0, ptr %17, align 4
  call void @llvm.lifetime.start.p0(i64 1, ptr %18) #11
  call void @llvm.lifetime.start.p0(i64 1, ptr %19) #11
  call void @llvm.lifetime.start.p0(i64 1, ptr %20) #11
  %22 = load ptr, ptr %9, align 8
  %23 = load i32, ptr %17, align 4
  %24 = call zeroext i8 @tvb_get_uint8(ptr noundef %22, i32 noundef %23)
  store i8 %24, ptr %18, align 1
  %25 = load i8, ptr %18, align 1
  %26 = zext i8 %25 to i32
  %27 = ashr i32 %26, 4
  %28 = trunc i32 %27 to i8
  store i8 %28, ptr %19, align 1
  %29 = load i8, ptr %18, align 1
  %30 = zext i8 %29 to i32
  %31 = and i32 %30, 15
  %32 = trunc i32 %31 to i8
  store i8 %32, ptr %20, align 1
  %33 = load ptr, ptr %11, align 8
  %34 = load i32, ptr @hf_gtpv2_fq_csid_type, align 4
  %35 = load ptr, ptr %9, align 8
  %36 = load i32, ptr %17, align 4
  %37 = call ptr @proto_tree_add_item(ptr noundef %33, i32 noundef %34, ptr noundef %35, i32 noundef %36, i32 noundef 1, i32 noundef 0)
  %38 = load ptr, ptr %11, align 8
  %39 = load i32, ptr @hf_gtpv2_fq_csid_nr, align 4
  %40 = load ptr, ptr %9, align 8
  %41 = load i32, ptr %17, align 4
  %42 = call ptr @proto_tree_add_item(ptr noundef %38, i32 noundef %39, ptr noundef %40, i32 noundef %41, i32 noundef 1, i32 noundef 0)
  %43 = load i32, ptr %17, align 4
  %44 = add i32 %43, 1
  store i32 %44, ptr %17, align 4
  %45 = load i8, ptr %19, align 1
  %46 = zext i8 %45 to i32
  switch i32 %46, label %76 [
    i32 0, label %47
    i32 1, label %55
    i32 2, label %63
  ]

47:                                               ; preds = %8
  %48 = load ptr, ptr %11, align 8
  %49 = load i32, ptr @hf_gtpv2_fq_csid_ipv4, align 4
  %50 = load ptr, ptr %9, align 8
  %51 = load i32, ptr %17, align 4
  %52 = call ptr @proto_tree_add_item(ptr noundef %48, i32 noundef %49, ptr noundef %50, i32 noundef %51, i32 noundef 4, i32 noundef 0)
  %53 = load i32, ptr %17, align 4
  %54 = add i32 %53, 4
  store i32 %54, ptr %17, align 4
  br label %85

55:                                               ; preds = %8
  %56 = load ptr, ptr %11, align 8
  %57 = load i32, ptr @hf_gtpv2_fq_csid_ipv6, align 4
  %58 = load ptr, ptr %9, align 8
  %59 = load i32, ptr %17, align 4
  %60 = call ptr @proto_tree_add_item(ptr noundef %56, i32 noundef %57, ptr noundef %58, i32 noundef %59, i32 noundef 16, i32 noundef 0)
  %61 = load i32, ptr %17, align 4
  %62 = add i32 %61, 16
  store i32 %62, ptr %17, align 4
  br label %85

63:                                               ; preds = %8
  %64 = load ptr, ptr %11, align 8
  %65 = load i32, ptr @hf_gtpv2_fq_csid_node_id, align 4
  %66 = load ptr, ptr %9, align 8
  %67 = load i32, ptr %17, align 4
  %68 = call ptr @proto_tree_add_item(ptr noundef %64, i32 noundef %65, ptr noundef %66, i32 noundef %67, i32 noundef 4, i32 noundef 0)
  %69 = load ptr, ptr %11, align 8
  %70 = load i32, ptr @hf_gtpv2_fq_csid_mcc_mnc, align 4
  %71 = load ptr, ptr %9, align 8
  %72 = load i32, ptr %17, align 4
  %73 = call ptr @proto_tree_add_item(ptr noundef %69, i32 noundef %70, ptr noundef %71, i32 noundef %72, i32 noundef 4, i32 noundef 0)
  %74 = load i32, ptr %17, align 4
  %75 = add i32 %74, 4
  store i32 %75, ptr %17, align 4
  br label %85

76:                                               ; preds = %8
  %77 = load ptr, ptr %11, align 8
  %78 = load ptr, ptr %10, align 8
  %79 = load ptr, ptr %9, align 8
  %80 = load i32, ptr %17, align 4
  %81 = sub i32 %80, 1
  %82 = load i8, ptr %19, align 1
  %83 = zext i8 %82 to i32
  %84 = call ptr (ptr, ptr, ptr, ptr, i32, i32, ptr, ...) @proto_tree_add_expert_format(ptr noundef %77, ptr noundef %78, ptr noundef @ei_gtpv2_fq_csid_type_bad, ptr noundef %79, i32 noundef %81, i32 noundef 1, ptr noundef @.str.15, i32 noundef %83)
  store i32 1, ptr %21, align 4
  br label %99

85:                                               ; preds = %63, %55, %47
  br label %86

86:                                               ; preds = %90, %85
  %87 = load i8, ptr %20, align 1
  %88 = add i8 %87, -1
  store i8 %88, ptr %20, align 1
  %89 = icmp ne i8 %87, 0
  br i1 %89, label %90, label %98

90:                                               ; preds = %86
  %91 = load ptr, ptr %11, align 8
  %92 = load i32, ptr @hf_gtpv2_fq_csid_id, align 4
  %93 = load ptr, ptr %9, align 8
  %94 = load i32, ptr %17, align 4
  %95 = call ptr @proto_tree_add_item(ptr noundef %91, i32 noundef %92, ptr noundef %93, i32 noundef %94, i32 noundef 2, i32 noundef 0)
  %96 = load i32, ptr %17, align 4
  %97 = add i32 %96, 2
  store i32 %97, ptr %17, align 4
  br label %86, !llvm.loop !8

98:                                               ; preds = %86
  store i32 0, ptr %21, align 4
  br label %99

99:                                               ; preds = %98, %76
  call void @llvm.lifetime.end.p0(i64 1, ptr %20) #11
  call void @llvm.lifetime.end.p0(i64 1, ptr %19) #11
  call void @llvm.lifetime.end.p0(i64 1, ptr %18) #11
  call void @llvm.lifetime.end.p0(i64 4, ptr %17) #11
  %100 = load i32, ptr %21, align 4
  switch i32 %100, label %102 [
    i32 0, label %101
    i32 1, label %101
  ]

101:                                              ; preds = %99, %99
  ret void

102:                                              ; preds = %99
  unreachable
}