; Function Attrs: null_pointer_is_valid sspstrong uwtable
define hidden void @dissect_gtpv2_fq_csid(ptr noundef %0, ptr noundef %1, ptr noundef %2, ptr readnone captures(none) %3, i16 zeroext %4, i8 zeroext %5, i8 zeroext %6, ptr readnone captures(none) %7) #1 {
  %9 = tail call zeroext i8 @tvb_get_uint8(ptr noundef %0, i32 noundef 0)
  %10 = lshr i8 %9, 4
  %11 = and i8 %9, 15
  %12 = load i32, ptr @hf_gtpv2_fq_csid_type, align 4
  %13 = tail call ptr @proto_tree_add_item(ptr noundef %2, i32 noundef %12, ptr noundef %0, i32 noundef 0, i32 noundef 1, i32 noundef 0)
  %14 = load i32, ptr @hf_gtpv2_fq_csid_nr, align 4
  %15 = tail call ptr @proto_tree_add_item(ptr noundef %2, i32 noundef %14, ptr noundef %0, i32 noundef 0, i32 noundef 1, i32 noundef 0)
  switch i8 %10, label %20 [
    i8 0, label %23
    i8 1, label %16
    i8 2, label %17
  ]

16:                                               ; preds = %8
  br label %23

17:                                               ; preds = %8
  %18 = load i32, ptr @hf_gtpv2_fq_csid_node_id, align 4
  %19 = tail call ptr @proto_tree_add_item(ptr noundef %2, i32 noundef %18, ptr noundef %0, i32 noundef 1, i32 noundef 4, i32 noundef 0)
  br label %23

20:                                               ; preds = %8
  %21 = zext nneg i8 %10 to i32
  %22 = tail call ptr (ptr, ptr, ptr, ptr, i32, i32, ptr, ...) @proto_tree_add_expert_format(ptr noundef %2, ptr noundef %1, ptr noundef nonnull @ei_gtpv2_fq_csid_type_bad, ptr noundef %0, i32 noundef 0, i32 noundef 1, ptr noundef nonnull @.str.15, i32 noundef %21)
  br label %.loopexit

23:                                               ; preds = %8, %17, %16
  %hf_gtpv2_fq_csid_mcc_mnc.sink = phi ptr [ @hf_gtpv2_fq_csid_mcc_mnc, %17 ], [ @hf_gtpv2_fq_csid_ipv6, %16 ], [ @hf_gtpv2_fq_csid_ipv4, %8 ]
  %.sink40 = phi i32 [ 4, %17 ], [ 16, %16 ], [ 4, %8 ]
  %.036 = phi i32 [ 5, %17 ], [ 17, %16 ], [ 5, %8 ]
  %24 = load i32, ptr %hf_gtpv2_fq_csid_mcc_mnc.sink, align 4
  %25 = tail call ptr @proto_tree_add_item(ptr noundef %2, i32 noundef %24, ptr noundef %0, i32 noundef 1, i32 noundef %.sink40, i32 noundef 0)
  %.not37 = icmp eq i8 %11, 0
  br i1 %.not37, label %.loopexit, label %.lr.ph

.lr.ph:                                           ; preds = %23, %.lr.ph
  %.039 = phi i8 [ %26, %.lr.ph ], [ %11, %23 ]
  %.138 = phi i32 [ %29, %.lr.ph ], [ %.036, %23 ]
  %26 = add nsw i8 %.039, -1
  %27 = load i32, ptr @hf_gtpv2_fq_csid_id, align 4
  %28 = tail call ptr @proto_tree_add_item(ptr noundef %2, i32 noundef %27, ptr noundef %0, i32 noundef %.138, i32 noundef 2, i32 noundef 0)
  %29 = add nuw nsw i32 %.138, 2
  %.not = icmp eq i8 %26, 0
  br i1 %.not, label %.loopexit, label %.lr.ph, !llvm.loop !6

.loopexit:                                        ; preds = %.lr.ph, %23, %20
  ret void
}